target datalayout = "e-m:e-p270:32:32-p271:32:32-p272:64:64-i64:64-i128:128-f80:128-n8:16:32:64-S128"
target triple = "x86_64-pc-linux-gnu"

%struct.IDAMemRec = type { ptr, double, ptr, ptr, i32, double, double, ptr, i32, i32, ptr, ptr, i32, i32, i32, ptr, ptr, i32, i32, double, double, ptr, i32, i32, i32, i32, ptr, ptr, i32, ptr, ptr, ptr, i32, double, i32, i32, double, ptr, ptr, ptr, i32, ptr, ptr, i32, i32, i32, double, ptr, ptr, ptr, [6 x ptr], [6 x double], [6 x double], [6 x double], [6 x double], [6 x double], ptr, ptr, ptr, ptr, ptr, ptr, ptr, ptr, ptr, ptr, ptr, ptr, ptr, ptr, ptr, ptr, ptr, [6 x ptr], ptr, ptr, ptr, ptr, [6 x ptr], ptr, ptr, ptr, ptr, ptr, ptr, ptr, ptr, ptr, ptr, ptr, ptr, ptr, ptr, ptr, ptr, [6 x ptr], ptr, ptr, ptr, ptr, ptr, double, ptr, ptr, i32, i32, i32, i32, i32, i32, i32, i32, double, double, double, i32, double, i32, i32, i32, i32, i32, double, double, double, double, double, double, double, double, double, double, double, double, double, double, double, double, double, i32, i32, i32, i32, i64, double, double, double, double, double, double, double, double, double, i64, i64, i64, i64, i64, i64, i64, i64, i64, i64, i64, i64, i64, i64, i64, i64, i64, i64, i64, i64, i64, i64, i64, i64, i64, i64, double, i32, i32, i32, i32, i32, i32, i32, i32, i32, i32, i32, i32, i32, ptr, i32, ptr, i32, ptr, i32, ptr, ptr, ptr, ptr, ptr, ptr, i32, i32, ptr, ptr, ptr, ptr, ptr, ptr, ptr, double, i32, i32, ptr, i32, ptr, ptr, double, double, double, ptr, ptr, ptr, double, double, i32, i32, i64, ptr, i32, ptr, [5 x double], ptr, ptr, i32, ptr, i32 }

@.str = private unnamed_addr constant [114 x i8] c"generated/home/dtcxzyw/WorkSpace/Projects/compilers/llvm-opt-benchmark/bench/sundials/sundials/src/idas/idas_io.c\00", align 1
@.str.1 = private unnamed_addr constant [24 x i8] c"ida_mem = NULL illegal.\00", align 1
@__func__.IDASetEtaMin = private unnamed_addr constant [13 x i8] c"IDASetEtaMin\00", align 1

; Function Attrs: nounwind uwtable
define i32 @IDASetEtaMin(ptr noundef %0, double noundef %1) #0 {
  %3 = alloca i32, align 4
  %4 = alloca ptr, align 8
  %5 = alloca double, align 8
  %6 = alloca ptr, align 8
  store ptr %0, ptr %4, align 8
  store double %1, ptr %5, align 8
  %7 = load ptr, ptr %4, align 8
  %8 = icmp eq ptr %7, null
  br i1 %8, label %9, label %10

9:                                                ; preds = %2
  call void (ptr, i32, i32, ptr, ptr, ptr, ...) @IDAProcessError(ptr noundef null, i32 noundef -20, i32 noundef 129, ptr noundef @__func__.IDASetEtaMin, ptr noundef @.str, ptr noundef @.str.1)
  store i32 -20, ptr %3, align 4
  br label %25

10:                                               ; preds = %2
  %11 = load ptr, ptr %4, align 8
  store ptr %11, ptr %6, align 8
  %12 = load double, ptr %5, align 8
  %13 = fcmp ole double %12, 0.000000e+00
  br i1 %13, label %17, label %14

14:                                               ; preds = %10
  %15 = load double, ptr %5, align 8
  %16 = fcmp oge double %15, 1.000000e+00
  br i1 %16, label %17, label %20

17:                                               ; preds = %14, %10
  %18 = load ptr, ptr %6, align 8
  %19 = getelementptr inbounds %struct.IDAMemRec, ptr %18, i32 0, i32 149
  store double 5.000000e-01, ptr %19, align 8
  br label %24

20:                                               ; preds = %14
  %21 = load double, ptr %5, align 8
  %22 = load ptr, ptr %6, align 8
  %23 = getelementptr inbounds %struct.IDAMemRec, ptr %22, i32 0, i32 149
  store double %21, ptr %23, align 8
  br label %24

24:                                               ; preds = %20, %17
  store i32 0, ptr %3, align 4
  br label %25

25:                                               ; preds = %24, %9
  %26 = load i32, ptr %3, align 4
  ret i32 %26
}